#include <math.h>
#include <stdio.h>
#include <stdlib.h>
#include <string.h>
#include <iostream>
using namespace std;

int main()
{
	int i, j, k, n, a[1000] = {0}, flag = 0;
	cin >> n >> k;
	for(i = 0 ; i < n ; i++)
	{
		cin >> a[i];
	}
	for(i = 0 ; i < n - 1; i++)
	{
		for(j = i + 1 ; j < n ; j++)
		{
			if(a[i] + a[j] == k)
			{
				flag = 1;
				cout << "yes" << endl;
				break;
			}
		}
		if(flag == 1)
		{
			break;
		}
	}
	if(flag == 0)
	{
		cout << "no" << endl;
	}
	return 0;
}
